target datalayout = "e-m:e-p270:32:32-p271:32:32-p272:64:64-i64:64-i128:128-f80:128-n8:16:32:64-S128"
target triple = "x86_64-pc-linux-gnu"

%struct.ggml_opt_context = type { ptr, ptr, ptr, ptr, ptr, ptr, ptr, ptr, ptr, %"class.std::mersenne_twister_engine", ptr, ptr, ptr, ptr, ptr, ptr, ptr, ptr, ptr, i64, i32, i32, i8, ptr, ptr, ptr }
%"class.std::mersenne_twister_engine" = type { [624 x i64], i64 }

; Function Attrs: mustprogress uwtable
define void @ggml_opt_free(ptr noundef %0) #0 {
  %2 = alloca ptr, align 8
  store ptr %0, ptr %2, align 8, !tbaa !40
  %3 = load ptr, ptr %2, align 8, !tbaa !40
  %4 = icmp eq ptr %3, null
  br i1 %4, label %5, label %6

5:                                                ; preds = %1
  br label %22

6:                                                ; preds = %1
  %7 = load ptr, ptr %2, align 8, !tbaa !40
  %8 = getelementptr inbounds nuw %struct.ggml_opt_context, ptr %7, i32 0, i32 7
  %9 = load ptr, ptr %8, align 8, !tbaa !121
  call void @ggml_backend_buffer_free(ptr noundef %9)
  %10 = load ptr, ptr %2, align 8, !tbaa !40
  %11 = getelementptr inbounds nuw %struct.ggml_opt_context, ptr %10, i32 0, i32 8
  %12 = load ptr, ptr %11, align 8, !tbaa !126
  call void @ggml_backend_buffer_free(ptr noundef %12)
  %13 = load ptr, ptr %2, align 8, !tbaa !40
  %14 = getelementptr inbounds nuw %struct.ggml_opt_context, ptr %13, i32 0, i32 3
  %15 = load ptr, ptr %14, align 8, !tbaa !113
  call void @ggml_free(ptr noundef %15)
  %16 = load ptr, ptr %2, align 8, !tbaa !40
  %17 = getelementptr inbounds nuw %struct.ggml_opt_context, ptr %16, i32 0, i32 4
  %18 = load ptr, ptr %17, align 8, !tbaa !114
  call void @ggml_free(ptr noundef %18)
  %19 = load ptr, ptr %2, align 8, !tbaa !40
  %20 = icmp eq ptr %19, null
  br i1 %20, label %22, label %21

21:                                               ; preds = %6
  call void @_ZdlPvm(ptr noundef %19, i64 noundef 5192) #19
  br label %22

22:                                               ; preds = %5, %21, %6
  ret void
}