; Function Attrs: mustprogress uwtable
define void @ggml_opt_free(ptr noundef %0) local_unnamed_addr #0 {
  %2 = icmp eq ptr %0, null
  br i1 %2, label %12, label %3

3:                                                ; preds = %1
  %4 = getelementptr inbounds nuw i8, ptr %0, i64 56
  %5 = load ptr, ptr %4, align 8, !tbaa !99
  tail call void @ggml_backend_buffer_free(ptr noundef %5)
  %6 = getelementptr inbounds nuw i8, ptr %0, i64 64
  %7 = load ptr, ptr %6, align 8, !tbaa !103
  tail call void @ggml_backend_buffer_free(ptr noundef %7)
  %8 = getelementptr inbounds nuw i8, ptr %0, i64 24
  %9 = load ptr, ptr %8, align 8, !tbaa !90
  tail call void @ggml_free(ptr noundef %9)
  %10 = getelementptr inbounds nuw i8, ptr %0, i64 32
  %11 = load ptr, ptr %10, align 8, !tbaa !91
  tail call void @ggml_free(ptr noundef %11)
  tail call void @_ZdlPvm(ptr noundef nonnull %0, i64 noundef 5192) #29
  br label %12

12:                                               ; preds = %1, %3
  ret void
}